; ModuleID = '50/2115.c'
source_filename = "50/2115.c"
target datalayout = "e-m:e-p270:32:32-p271:32:32-p272:64:64-i64:64-f80:128-n8:16:32:64-S128"
target triple = "x86_64-pc-linux-gnu"

@.str = private unnamed_addr constant [3 x i8] c"%d\00", align 1
@__const.main.a = private unnamed_addr constant [13 x i32] [i32 0, i32 31, i32 28, i32 31, i32 30, i32 31, i32 30, i32 31, i32 31, i32 30, i32 31, i32 30, i32 31], align 16
@.str.1 = private unnamed_addr constant [2 x i8] c"\0A\00", align 1

; Function Attrs: noinline nounwind uwtable
define dso_local i32 @main() #0 {
  %1 = alloca i32, align 4
  %2 = alloca i32, align 4
  %3 = alloca i32, align 4
  %4 = alloca [13 x i32], align 16
  %5 = alloca [13 x i32], align 16
  store i32 0, i32* %1, align 4
  %6 = call i32 (i8*, ...) @__isoc99_scanf(i8* getelementptr inbounds ([3 x i8], [3 x i8]* @.str, i64 0, i64 0), i32* %2)
  %7 = bitcast [13 x i32]* %4 to i8*
  call void @llvm.memcpy.p0i8.p0i8.i64(i8* align 16 %7, i8* align 16 bitcast ([13 x i32]* @__const.main.a to i8*), i64 52, i1 false)
  %8 = load i32, i32* %2, align 4
  %9 = getelementptr inbounds [13 x i32], [13 x i32]* %5, i64 0, i64 1
  store i32 %8, i32* %9, align 4
  store i32 2, i32* %3, align 4
  br label %10

10:                                               ; preds = %68, %0
  %11 = load i32, i32* %3, align 4
  %12 = icmp sle i32 %11, 12
  br i1 %12, label %13, label %71

13:                                               ; preds = %10
  %14 = load i32, i32* %3, align 4
  %15 = sub nsw i32 %14, 1
  %16 = sext i32 %15 to i64
  %17 = getelementptr inbounds [13 x i32], [13 x i32]* %4, i64 0, i64 %16
  %18 = load i32, i32* %17, align 4
  %19 = icmp eq i32 %18, 31
  br i1 %19, label %20, label %31

20:                                               ; preds = %13
  %21 = load i32, i32* %3, align 4
  %22 = sub nsw i32 %21, 1
  %23 = sext i32 %22 to i64
  %24 = getelementptr inbounds [13 x i32], [13 x i32]* %5, i64 0, i64 %23
  %25 = load i32, i32* %24, align 4
  %26 = add nsw i32 %25, 3
  %27 = srem i32 %26, 7
  %28 = load i32, i32* %3, align 4
  %29 = sext i32 %28 to i64
  %30 = getelementptr inbounds [13 x i32], [13 x i32]* %5, i64 0, i64 %29
  store i32 %27, i32* %30, align 4
  br label %67

31:                                               ; preds = %13
  %32 = load i32, i32* %3, align 4
  %33 = sub nsw i32 %32, 1
  %34 = sext i32 %33 to i64
  %35 = getelementptr inbounds [13 x i32], [13 x i32]* %4, i64 0, i64 %34
  %36 = load i32, i32* %35, align 4
  %37 = icmp eq i32 %36, 30
  br i1 %37, label %38, label %49

38:                                               ; preds = %31
  %39 = load i32, i32* %3, align 4
  %40 = sub nsw i32 %39, 1
  %41 = sext i32 %40 to i64
  %42 = getelementptr inbounds [13 x i32], [13 x i32]* %5, i64 0, i64 %41
  %43 = load i32, i32* %42, align 4
  %44 = add nsw i32 %43, 2
  %45 = srem i32 %44, 7
  %46 = load i32, i32* %3, align 4
  %47 = sext i32 %46 to i64
  %48 = getelementptr inbounds [13 x i32], [13 x i32]* %5, i64 0, i64 %47
  store i32 %45, i32* %48, align 4
  br label %66

49:                                               ; preds = %31
  %50 = load i32, i32* %3, align 4
  %51 = sub nsw i32 %50, 1
  %52 = sext i32 %51 to i64
  %53 = getelementptr inbounds [13 x i32], [13 x i32]* %4, i64 0, i64 %52
  %54 = load i32, i32* %53, align 4
  %55 = icmp eq i32 %54, 28
  br i1 %55, label %56, label %65

56:                                               ; preds = %49
  %57 = load i32, i32* %3, align 4
  %58 = sub nsw i32 %57, 1
  %59 = sext i32 %58 to i64
  %60 = getelementptr inbounds [13 x i32], [13 x i32]* %5, i64 0, i64 %59
  %61 = load i32, i32* %60, align 4
  %62 = load i32, i32* %3, align 4
  %63 = sext i32 %62 to i64
  %64 = getelementptr inbounds [13 x i32], [13 x i32]* %5, i64 0, i64 %63
  store i32 %61, i32* %64, align 4
  br label %65

65:                                               ; preds = %56, %49
  br label %66

66:                                               ; preds = %65, %38
  br label %67

67:                                               ; preds = %66, %20
  br label %68

68:                                               ; preds = %67
  %69 = load i32, i32* %3, align 4
  %70 = add nsw i32 %69, 1
  store i32 %70, i32* %3, align 4
  br label %10

71:                                               ; preds = %10
  store i32 1, i32* %3, align 4
  br label %72

72:                                               ; preds = %92, %71
  %73 = load i32, i32* %3, align 4
  %74 = icmp sle i32 %73, 12
  br i1 %74, label %75, label %95

75:                                               ; preds = %72
  %76 = load i32, i32* %3, align 4
  %77 = sext i32 %76 to i64
  %78 = getelementptr inbounds [13 x i32], [13 x i32]* %5, i64 0, i64 %77
  %79 = load i32, i32* %78, align 4
  %80 = icmp eq i32 %79, 0
  br i1 %80, label %87, label %81

81:                                               ; preds = %75
  %82 = load i32, i32* %3, align 4
  %83 = sext i32 %82 to i64
  %84 = getelementptr inbounds [13 x i32], [13 x i32]* %5, i64 0, i64 %83
  %85 = load i32, i32* %84, align 4
  %86 = icmp eq i32 %85, 7
  br i1 %86, label %87, label %91

87:                                               ; preds = %81, %75
  %88 = load i32, i32* %3, align 4
  %89 = call i32 (i8*, ...) @printf(i8* getelementptr inbounds ([3 x i8], [3 x i8]* @.str, i64 0, i64 0), i32 %88)
  %90 = call i32 (i8*, ...) @printf(i8* getelementptr inbounds ([2 x i8], [2 x i8]* @.str.1, i64 0, i64 0))
  br label %91

91:                                               ; preds = %87, %81
  br label %92

92:                                               ; preds = %91
  %93 = load i32, i32* %3, align 4
  %94 = add nsw i32 %93, 1
  store i32 %94, i32* %3, align 4
  br label %72

95:                                               ; preds = %72
  ret i32 0
}

declare dso_local i32 @__isoc99_scanf(i8*, ...) #1

; Function Attrs: argmemonly nounwind willreturn
declare void @llvm.memcpy.p0i8.p0i8.i64(i8* noalias nocapture writeonly, i8* noalias nocapture readonly, i64, i1 immarg) #2

declare dso_local i32 @printf(i8*, ...) #1


!llvm.module.flags = !{!0}
!llvm.ident = !{!1}

!0 = !{i32 1, !"wchar_size", i32 4}
!1 = !{!"clang version 10.0.0-4ubuntu1 "}
